(dp0
S'niter'
p1
I1000
sS'D'
p2
F0.5
sS'K'
p3
I30
sS'm'
p4
I11
sS'N'
p5
I15
sS'theta'
p6
(lp7
(lp8
F1.0
aF0.0
aF0.0
aF0.0
aF0.0
aF0.0
aF0.0
aF0.0
aF0.0
aF0.0
aF0.0
aF0.0
aF0.0
aF0.0
aF0.0
aasS'total'
p9
I0
s.